; Function Attrs: mustprogress uwtable
define noundef range(i64 -2147483648, 2147483648) i64 @_ZNK8QuantLib9Thirty3607EU_Impl8dayCountERKNS_4DateES4_(ptr nocapture nonnull readnone align 8 %this, ptr noundef nonnull align 8 dereferenceable(8) %d1, ptr noundef nonnull align 8 dereferenceable(8) %d2) unnamed_addr #0 align 2 {
entry:
  %0 = load i64, ptr %d1, align 8, !tbaa !20
  %call.i.i = tail call noundef i32 @_ZNK8QuantLib4Date4yearEv(ptr noundef nonnull align 8 dereferenceable(8) %d1)
  %call2.i.i = tail call noundef i64 @_ZN8QuantLib4Date10yearOffsetEi(i32 noundef %call.i.i)
  %sub.i.i = sub nsw i64 %0, %call2.i.i
  %conv.i.i = trunc i64 %sub.i.i to i32
  %call2.i = tail call noundef i32 @_ZNK8QuantLib4Date5monthEv(ptr noundef nonnull align 8 dereferenceable(8) %d1)
  %call3.i = tail call noundef i32 @_ZNK8QuantLib4Date4yearEv(ptr noundef nonnull align 8 dereferenceable(8) %d1)
  %call4.i = tail call noundef zeroext i1 @_ZN8QuantLib4Date6isLeapEi(i32 noundef %call3.i)
  %call5.i = tail call noundef i32 @_ZN8QuantLib4Date11monthOffsetENS_5MonthEb(i32 noundef %call2.i, i1 noundef zeroext %call4.i)
  %sub.i = sub nsw i32 %conv.i.i, %call5.i
  %1 = load i64, ptr %d2, align 8, !tbaa !20
  %call.i.i8 = tail call noundef i32 @_ZNK8QuantLib4Date4yearEv(ptr noundef nonnull align 8 dereferenceable(8) %d2)
  %call2.i.i9 = tail call noundef i64 @_ZN8QuantLib4Date10yearOffsetEi(i32 noundef %call.i.i8)
  %sub.i.i10 = sub nsw i64 %1, %call2.i.i9
  %conv.i.i11 = trunc i64 %sub.i.i10 to i32
  %call2.i12 = tail call noundef i32 @_ZNK8QuantLib4Date5monthEv(ptr noundef nonnull align 8 dereferenceable(8) %d2)
  %call3.i13 = tail call noundef i32 @_ZNK8QuantLib4Date4yearEv(ptr noundef nonnull align 8 dereferenceable(8) %d2)
  %call4.i14 = tail call noundef zeroext i1 @_ZN8QuantLib4Date6isLeapEi(i32 noundef %call3.i13)
  %call5.i15 = tail call noundef i32 @_ZN8QuantLib4Date11monthOffsetENS_5MonthEb(i32 noundef %call2.i12, i1 noundef zeroext %call4.i14)
  %sub.i16 = sub nsw i32 %conv.i.i11, %call5.i15
  %call3 = tail call noundef i32 @_ZNK8QuantLib4Date5monthEv(ptr noundef nonnull align 8 dereferenceable(8) %d1)
  %call4 = tail call noundef i32 @_ZNK8QuantLib4Date5monthEv(ptr noundef nonnull align 8 dereferenceable(8) %d2)
  %call5 = tail call noundef i32 @_ZNK8QuantLib4Date4yearEv(ptr noundef nonnull align 8 dereferenceable(8) %d1)
  %call6 = tail call noundef i32 @_ZNK8QuantLib4Date4yearEv(ptr noundef nonnull align 8 dereferenceable(8) %d2)
  %cmp = icmp eq i32 %sub.i, 31
  %spec.store.select = select i1 %cmp, i32 30, i32 %sub.i
  %cmp7 = icmp eq i32 %sub.i16, 31
  %spec.store.select1 = select i1 %cmp7, i32 30, i32 %sub.i16
  %sub = sub nsw i32 %call6, %call5
  %mul = mul nsw i32 %sub, 360
  %sub10 = sub nsw i32 %call4, %call3
  %mul11 = mul nsw i32 %sub10, 30
  %add = sub i32 %spec.store.select1, %spec.store.select
  %sub12 = add i32 %add, %mul11
  %add13 = add i32 %sub12, %mul
  %conv = sext i32 %add13 to i64
  ret i64 %conv
}